target datalayout = "e-m:e-p270:32:32-p271:32:32-p272:64:64-i64:64-i128:128-f80:128-n8:16:32:64-S128"
target triple = "x86_64-pc-linux-gnu"

%struct.Super_ManStruct_t_ = type { ptr, i32, i32, i32, i32, float, float, i32, i32, i32, [10 x ptr], i32, ptr, ptr, ptr, ptr, i32, i32, i32, i32, i32, i32, i32, i64, i32, i32, i64, i64 }
%struct.Super_GateStruct_t_ = type { ptr, i32, [2 x i32], [6 x ptr], float, [6 x float], float, ptr }

; Function Attrs: nounwind uwtable
define internal i32 @Super_CompareGates(ptr noundef %0, ptr noundef %1, float noundef %2, ptr noundef %3, i32 noundef %4) #0 {
  %6 = alloca i32, align 4
  %7 = alloca ptr, align 8
  %8 = alloca ptr, align 8
  %9 = alloca float, align 4
  %10 = alloca ptr, align 8
  %11 = alloca i32, align 4
  %12 = alloca ptr, align 8
  %13 = alloca ptr, align 8
  %14 = alloca ptr, align 8
  %15 = alloca ptr, align 8
  %16 = alloca i32, align 4
  %17 = alloca i32, align 4
  %18 = alloca i32, align 4
  %19 = alloca i64, align 8
  %20 = alloca i32, align 4
  store ptr %0, ptr %7, align 8, !tbaa !20
  store ptr %1, ptr %8, align 8, !tbaa !111
  store float %2, ptr %9, align 4, !tbaa !10
  store ptr %3, ptr %10, align 8, !tbaa !73
  store i32 %4, ptr %11, align 4, !tbaa !8
  call void @llvm.lifetime.start.p0(i64 8, ptr %12) #12
  call void @llvm.lifetime.start.p0(i64 8, ptr %13) #12
  call void @llvm.lifetime.start.p0(i64 8, ptr %14) #12
  call void @llvm.lifetime.start.p0(i64 8, ptr %15) #12
  call void @llvm.lifetime.start.p0(i64 4, ptr %16) #12
  call void @llvm.lifetime.start.p0(i64 4, ptr %17) #12
  call void @llvm.lifetime.start.p0(i64 4, ptr %18) #12
  call void @llvm.lifetime.start.p0(i64 8, ptr %19) #12
  %21 = load ptr, ptr %7, align 8, !tbaa !20
  %22 = getelementptr inbounds nuw %struct.Super_ManStruct_t_, ptr %21, i32 0, i32 1
  %23 = load i32, ptr %22, align 8, !tbaa !37
  %24 = icmp slt i32 %23, 6
  br i1 %24, label %25, label %38

25:                                               ; preds = %5
  %26 = load ptr, ptr %8, align 8, !tbaa !111
  %27 = getelementptr inbounds i32, ptr %26, i64 0
  %28 = load i32, ptr %27, align 4, !tbaa !8
  %29 = icmp eq i32 %28, 0
  br i1 %29, label %36, label %30

30:                                               ; preds = %25
  %31 = load ptr, ptr %8, align 8, !tbaa !111
  %32 = getelementptr inbounds i32, ptr %31, i64 0
  %33 = load i32, ptr %32, align 4, !tbaa !8
  %34 = xor i32 %33, -1
  %35 = icmp eq i32 %34, 0
  br i1 %35, label %36, label %37

36:                                               ; preds = %30, %25
  store i32 0, ptr %6, align 4
  store i32 1, ptr %20, align 4
  br label %264

37:                                               ; preds = %30
  br label %62

38:                                               ; preds = %5
  %39 = load ptr, ptr %8, align 8, !tbaa !111
  %40 = getelementptr inbounds i32, ptr %39, i64 0
  %41 = load i32, ptr %40, align 4, !tbaa !8
  %42 = icmp eq i32 %41, 0
  br i1 %42, label %43, label %48

43:                                               ; preds = %38
  %44 = load ptr, ptr %8, align 8, !tbaa !111
  %45 = getelementptr inbounds i32, ptr %44, i64 1
  %46 = load i32, ptr %45, align 4, !tbaa !8
  %47 = icmp eq i32 %46, 0
  br i1 %47, label %60, label %48

48:                                               ; preds = %43, %38
  %49 = load ptr, ptr %8, align 8, !tbaa !111
  %50 = getelementptr inbounds i32, ptr %49, i64 0
  %51 = load i32, ptr %50, align 4, !tbaa !8
  %52 = xor i32 %51, -1
  %53 = icmp eq i32 %52, 0
  br i1 %53, label %54, label %61

54:                                               ; preds = %48
  %55 = load ptr, ptr %8, align 8, !tbaa !111
  %56 = getelementptr inbounds i32, ptr %55, i64 1
  %57 = load i32, ptr %56, align 4, !tbaa !8
  %58 = xor i32 %57, -1
  %59 = icmp eq i32 %58, 0
  br i1 %59, label %60, label %61

60:                                               ; preds = %54, %43
  store i32 0, ptr %6, align 4
  store i32 1, ptr %20, align 4
  br label %264

61:                                               ; preds = %54, %48
  br label %62

62:                                               ; preds = %61, %37
  %63 = load ptr, ptr %8, align 8, !tbaa !111
  %64 = getelementptr inbounds i32, ptr %63, i64 0
  %65 = load i32, ptr %64, align 4, !tbaa !8
  %66 = load ptr, ptr %8, align 8, !tbaa !111
  %67 = getelementptr inbounds i32, ptr %66, i64 1
  %68 = load i32, ptr %67, align 4, !tbaa !8
  %69 = xor i32 %65, %68
  %70 = zext i32 %69 to i64
  store i64 %70, ptr %19, align 8, !tbaa !36
  %71 = load ptr, ptr %7, align 8, !tbaa !20
  %72 = getelementptr inbounds nuw %struct.Super_ManStruct_t_, ptr %71, i32 0, i32 13
  %73 = load ptr, ptr %72, align 8, !tbaa !51
  %74 = load i64, ptr %19, align 8, !tbaa !36
  %75 = inttoptr i64 %74 to ptr
  %76 = call i32 @stmm_find(ptr noundef %73, ptr noundef %75, ptr noundef %12)
  %77 = icmp ne i32 %76, 0
  br i1 %77, label %79, label %78

78:                                               ; preds = %62
  store i32 1, ptr %6, align 4
  store i32 1, ptr %20, align 4
  br label %264

79:                                               ; preds = %62
  store ptr null, ptr %13, align 8, !tbaa !55
  %80 = load ptr, ptr %12, align 8, !tbaa !66
  %81 = load ptr, ptr %80, align 8, !tbaa !55
  store ptr %81, ptr %14, align 8, !tbaa !55
  %82 = load ptr, ptr %14, align 8, !tbaa !55
  %83 = icmp ne ptr %82, null
  br i1 %83, label %84, label %88

84:                                               ; preds = %79
  %85 = load ptr, ptr %14, align 8, !tbaa !55
  %86 = getelementptr inbounds nuw %struct.Super_GateStruct_t_, ptr %85, i32 0, i32 7
  %87 = load ptr, ptr %86, align 8, !tbaa !102
  br label %89

88:                                               ; preds = %79
  br label %89

89:                                               ; preds = %88, %84
  %90 = phi ptr [ %87, %84 ], [ null, %88 ]
  store ptr %90, ptr %15, align 8, !tbaa !55
  br label %91

91:                                               ; preds = %261, %89
  %92 = load ptr, ptr %14, align 8, !tbaa !55
  %93 = icmp ne ptr %92, null
  br i1 %93, label %94, label %263

94:                                               ; preds = %91
  %95 = load ptr, ptr %7, align 8, !tbaa !20
  %96 = getelementptr inbounds nuw %struct.Super_ManStruct_t_, ptr %95, i32 0, i32 21
  %97 = load i32, ptr %96, align 4, !tbaa !42
  %98 = add nsw i32 %97, 1
  store i32 %98, ptr %96, align 4, !tbaa !42
  %99 = load ptr, ptr %14, align 8, !tbaa !55
  %100 = getelementptr inbounds nuw %struct.Super_GateStruct_t_, ptr %99, i32 0, i32 2
  %101 = getelementptr inbounds [2 x i32], ptr %100, i64 0, i64 0
  %102 = load i32, ptr %101, align 4, !tbaa !8
  %103 = load ptr, ptr %8, align 8, !tbaa !111
  %104 = getelementptr inbounds i32, ptr %103, i64 0
  %105 = load i32, ptr %104, align 4, !tbaa !8
  %106 = icmp ne i32 %102, %105
  br i1 %106, label %116, label %107

107:                                              ; preds = %94
  %108 = load ptr, ptr %14, align 8, !tbaa !55
  %109 = getelementptr inbounds nuw %struct.Super_GateStruct_t_, ptr %108, i32 0, i32 2
  %110 = getelementptr inbounds [2 x i32], ptr %109, i64 0, i64 1
  %111 = load i32, ptr %110, align 4, !tbaa !8
  %112 = load ptr, ptr %8, align 8, !tbaa !111
  %113 = getelementptr inbounds i32, ptr %112, i64 1
  %114 = load i32, ptr %113, align 4, !tbaa !8
  %115 = icmp ne i32 %111, %114
  br i1 %115, label %116, label %121

116:                                              ; preds = %107, %94
  %117 = load ptr, ptr %7, align 8, !tbaa !20
  %118 = getelementptr inbounds nuw %struct.Super_ManStruct_t_, ptr %117, i32 0, i32 22
  %119 = load i32, ptr %118, align 8, !tbaa !43
  %120 = add nsw i32 %119, 1
  store i32 %120, ptr %118, align 8, !tbaa !43
  br label %252

121:                                              ; preds = %107
  store i32 0, ptr %18, align 4, !tbaa !8
  store i32 0, ptr %17, align 4, !tbaa !8
  %122 = load ptr, ptr %14, align 8, !tbaa !55
  %123 = getelementptr inbounds nuw %struct.Super_GateStruct_t_, ptr %122, i32 0, i32 4
  %124 = load float, ptr %123, align 8, !tbaa !72
  %125 = fpext float %124 to double
  %126 = fadd double %125, 1.000000e-03
  %127 = load float, ptr %9, align 4, !tbaa !10
  %128 = fpext float %127 to double
  %129 = fcmp olt double %126, %128
  br i1 %129, label %130, label %131

130:                                              ; preds = %121
  store i32 1, ptr %18, align 4, !tbaa !8
  br label %142

131:                                              ; preds = %121
  %132 = load ptr, ptr %14, align 8, !tbaa !55
  %133 = getelementptr inbounds nuw %struct.Super_GateStruct_t_, ptr %132, i32 0, i32 4
  %134 = load float, ptr %133, align 8, !tbaa !72
  %135 = fpext float %134 to double
  %136 = load float, ptr %9, align 4, !tbaa !10
  %137 = fpext float %136 to double
  %138 = fadd double %137, 1.000000e-03
  %139 = fcmp ogt double %135, %138
  br i1 %139, label %140, label %141

140:                                              ; preds = %131
  store i32 1, ptr %17, align 4, !tbaa !8
  br label %141

141:                                              ; preds = %140, %131
  br label %142

142:                                              ; preds = %141, %130
  store i32 0, ptr %16, align 4, !tbaa !8
  br label %143

143:                                              ; preds = %208, %142
  %144 = load i32, ptr %16, align 4, !tbaa !8
  %145 = load i32, ptr %11, align 4, !tbaa !8
  %146 = icmp slt i32 %144, %145
  br i1 %146, label %147, label %211

147:                                              ; preds = %143
  %148 = load ptr, ptr %14, align 8, !tbaa !55
  %149 = getelementptr inbounds nuw %struct.Super_GateStruct_t_, ptr %148, i32 0, i32 5
  %150 = load i32, ptr %16, align 4, !tbaa !8
  %151 = sext i32 %150 to i64
  %152 = getelementptr inbounds [6 x float], ptr %149, i64 0, i64 %151
  %153 = load float, ptr %152, align 4, !tbaa !10
  %154 = fpext float %153 to double
  %155 = fcmp oeq double %154, -9.999000e+03
  br i1 %155, label %164, label %156

156:                                              ; preds = %147
  %157 = load ptr, ptr %10, align 8, !tbaa !73
  %158 = load i32, ptr %16, align 4, !tbaa !8
  %159 = sext i32 %158 to i64
  %160 = getelementptr inbounds float, ptr %157, i64 %159
  %161 = load float, ptr %160, align 4, !tbaa !10
  %162 = fpext float %161 to double
  %163 = fcmp oeq double %162, -9.999000e+03
  br i1 %163, label %164, label %165

164:                                              ; preds = %156, %147
  br label %208

165:                                              ; preds = %156
  %166 = load ptr, ptr %14, align 8, !tbaa !55
  %167 = getelementptr inbounds nuw %struct.Super_GateStruct_t_, ptr %166, i32 0, i32 5
  %168 = load i32, ptr %16, align 4, !tbaa !8
  %169 = sext i32 %168 to i64
  %170 = getelementptr inbounds [6 x float], ptr %167, i64 0, i64 %169
  %171 = load float, ptr %170, align 4, !tbaa !10
  %172 = fpext float %171 to double
  %173 = fadd double %172, 1.000000e-03
  %174 = load ptr, ptr %10, align 8, !tbaa !73
  %175 = load i32, ptr %16, align 4, !tbaa !8
  %176 = sext i32 %175 to i64
  %177 = getelementptr inbounds float, ptr %174, i64 %176
  %178 = load float, ptr %177, align 4, !tbaa !10
  %179 = fpext float %178 to double
  %180 = fcmp olt double %173, %179
  br i1 %180, label %181, label %182

181:                                              ; preds = %165
  store i32 1, ptr %18, align 4, !tbaa !8
  br label %200

182:                                              ; preds = %165
  %183 = load ptr, ptr %14, align 8, !tbaa !55
  %184 = getelementptr inbounds nuw %struct.Super_GateStruct_t_, ptr %183, i32 0, i32 5
  %185 = load i32, ptr %16, align 4, !tbaa !8
  %186 = sext i32 %185 to i64
  %187 = getelementptr inbounds [6 x float], ptr %184, i64 0, i64 %186
  %188 = load float, ptr %187, align 4, !tbaa !10
  %189 = fpext float %188 to double
  %190 = load ptr, ptr %10, align 8, !tbaa !73
  %191 = load i32, ptr %16, align 4, !tbaa !8
  %192 = sext i32 %191 to i64
  %193 = getelementptr inbounds float, ptr %190, i64 %192
  %194 = load float, ptr %193, align 4, !tbaa !10
  %195 = fpext float %194 to double
  %196 = fadd double %195, 1.000000e-03
  %197 = fcmp ogt double %189, %196
  br i1 %197, label %198, label %199

198:                                              ; preds = %182
  store i32 1, ptr %17, align 4, !tbaa !8
  br label %199

199:                                              ; preds = %198, %182
  br label %200

200:                                              ; preds = %199, %181
  %201 = load i32, ptr %18, align 4, !tbaa !8
  %202 = icmp ne i32 %201, 0
  br i1 %202, label %203, label %207

203:                                              ; preds = %200
  %204 = load i32, ptr %17, align 4, !tbaa !8
  %205 = icmp ne i32 %204, 0
  br i1 %205, label %206, label %207

206:                                              ; preds = %203
  br label %211

207:                                              ; preds = %203, %200
  br label %208

208:                                              ; preds = %207, %164
  %209 = load i32, ptr %16, align 4, !tbaa !8
  %210 = add nsw i32 %209, 1
  store i32 %210, ptr %16, align 4, !tbaa !8
  br label %143, !llvm.loop !131

211:                                              ; preds = %206, %143
  %212 = load i32, ptr %18, align 4, !tbaa !8
  %213 = icmp ne i32 %212, 0
  br i1 %213, label %214, label %219

214:                                              ; preds = %211
  %215 = load i32, ptr %17, align 4, !tbaa !8
  %216 = icmp ne i32 %215, 0
  br i1 %216, label %217, label %219

217:                                              ; preds = %214
  %218 = load ptr, ptr %14, align 8, !tbaa !55
  store ptr %218, ptr %13, align 8, !tbaa !55
  br label %251

219:                                              ; preds = %214, %211
  %220 = load i32, ptr %17, align 4, !tbaa !8
  %221 = icmp ne i32 %220, 0
  br i1 %221, label %222, label %245

222:                                              ; preds = %219
  %223 = load ptr, ptr %13, align 8, !tbaa !55
  %224 = icmp eq ptr %223, null
  br i1 %224, label %225, label %230

225:                                              ; preds = %222
  %226 = load ptr, ptr %14, align 8, !tbaa !55
  %227 = getelementptr inbounds nuw %struct.Super_GateStruct_t_, ptr %226, i32 0, i32 7
  %228 = load ptr, ptr %227, align 8, !tbaa !102
  %229 = load ptr, ptr %12, align 8, !tbaa !66
  store ptr %228, ptr %229, align 8, !tbaa !55
  br label %236

230:                                              ; preds = %222
  %231 = load ptr, ptr %14, align 8, !tbaa !55
  %232 = getelementptr inbounds nuw %struct.Super_GateStruct_t_, ptr %231, i32 0, i32 7
  %233 = load ptr, ptr %232, align 8, !tbaa !102
  %234 = load ptr, ptr %13, align 8, !tbaa !55
  %235 = getelementptr inbounds nuw %struct.Super_GateStruct_t_, ptr %234, i32 0, i32 7
  store ptr %233, ptr %235, align 8, !tbaa !102
  br label %236

236:                                              ; preds = %230, %225
  %237 = load ptr, ptr %7, align 8, !tbaa !20
  %238 = getelementptr inbounds nuw %struct.Super_ManStruct_t_, ptr %237, i32 0, i32 14
  %239 = load ptr, ptr %238, align 8, !tbaa !50
  %240 = load ptr, ptr %14, align 8, !tbaa !55
  call void @Extra_MmFixedEntryRecycle(ptr noundef %239, ptr noundef %240)
  %241 = load ptr, ptr %7, align 8, !tbaa !20
  %242 = getelementptr inbounds nuw %struct.Super_ManStruct_t_, ptr %241, i32 0, i32 18
  %243 = load i32, ptr %242, align 8, !tbaa !41
  %244 = add nsw i32 %243, 1
  store i32 %244, ptr %242, align 8, !tbaa !41
  br label %250

245:                                              ; preds = %219
  %246 = load i32, ptr %18, align 4, !tbaa !8
  %247 = icmp ne i32 %246, 0
  br i1 %247, label %248, label %249

248:                                              ; preds = %245
  store i32 0, ptr %6, align 4
  store i32 1, ptr %20, align 4
  br label %264

249:                                              ; preds = %245
  store i32 0, ptr %6, align 4
  store i32 1, ptr %20, align 4
  br label %264

250:                                              ; preds = %236
  br label %251

251:                                              ; preds = %250, %217
  br label %252

252:                                              ; preds = %251, %116
  %253 = load ptr, ptr %15, align 8, !tbaa !55
  store ptr %253, ptr %14, align 8, !tbaa !55
  %254 = load ptr, ptr %14, align 8, !tbaa !55
  %255 = icmp ne ptr %254, null
  br i1 %255, label %256, label %260

256:                                              ; preds = %252
  %257 = load ptr, ptr %14, align 8, !tbaa !55
  %258 = getelementptr inbounds nuw %struct.Super_GateStruct_t_, ptr %257, i32 0, i32 7
  %259 = load ptr, ptr %258, align 8, !tbaa !102
  br label %261

260:                                              ; preds = %252
  br label %261

261:                                              ; preds = %260, %256
  %262 = phi ptr [ %259, %256 ], [ null, %260 ]
  store ptr %262, ptr %15, align 8, !tbaa !55
  br label %91, !llvm.loop !132

263:                                              ; preds = %91
  store i32 1, ptr %6, align 4
  store i32 1, ptr %20, align 4
  br label %264

264:                                              ; preds = %263, %249, %248, %78, %60, %36
  call void @llvm.lifetime.end.p0(i64 8, ptr %19) #12
  call void @llvm.lifetime.end.p0(i64 4, ptr %18) #12
  call void @llvm.lifetime.end.p0(i64 4, ptr %17) #12
  call void @llvm.lifetime.end.p0(i64 4, ptr %16) #12
  call void @llvm.lifetime.end.p0(i64 8, ptr %15) #12
  call void @llvm.lifetime.end.p0(i64 8, ptr %14) #12
  call void @llvm.lifetime.end.p0(i64 8, ptr %13) #12
  call void @llvm.lifetime.end.p0(i64 8, ptr %12) #12
  %265 = load i32, ptr %6, align 4
  ret i32 %265
}