; Function Attrs: nounwind uwtable
define internal fastcc range(i32 0, 2) i32 @Super_CompareGates(ptr noundef captures(none) %0, ptr noundef nonnull readonly captures(none) %1, float noundef %2, ptr noundef nonnull readonly captures(none) %3, i32 noundef %4) unnamed_addr #0 {
  %6 = alloca ptr, align 8
  call void @llvm.lifetime.start.p0(i64 8, ptr nonnull %6) #20
  %7 = getelementptr inbounds nuw i8, ptr %0, i64 8
  %8 = load i32, ptr %7, align 8, !tbaa !35
  %9 = icmp slt i32 %8, 6
  %10 = load i32, ptr %1, align 4, !tbaa !33
  br i1 %9, label %11, label %12

11:                                               ; preds = %5
  switch i32 %10, label %.thread [
    i32 0, label %.loopexit
    i32 -1, label %.loopexit
  ]

12:                                               ; preds = %5
  switch i32 %10, label %.thread [
    i32 0, label %13
    i32 -1, label %17
  ]

13:                                               ; preds = %12
  %14 = getelementptr inbounds nuw i8, ptr %1, i64 4
  %15 = load i32, ptr %14, align 4, !tbaa !33
  %16 = icmp eq i32 %15, 0
  br i1 %16, label %.loopexit, label %.thread

17:                                               ; preds = %12
  %18 = getelementptr inbounds nuw i8, ptr %1, i64 4
  %19 = load i32, ptr %18, align 4, !tbaa !33
  %20 = icmp eq i32 %19, -1
  br i1 %20, label %.loopexit, label %.thread

.thread:                                          ; preds = %12, %13, %11, %17
  %21 = phi i32 [ %10, %12 ], [ 0, %13 ], [ %10, %11 ], [ -1, %17 ]
  %22 = getelementptr inbounds nuw i8, ptr %1, i64 4
  %23 = load i32, ptr %22, align 4, !tbaa !33
  %24 = xor i32 %23, %21
  %25 = zext i32 %24 to i64
  %26 = getelementptr inbounds nuw i8, ptr %0, i64 144
  %27 = load ptr, ptr %26, align 8, !tbaa !21
  %28 = inttoptr i64 %25 to ptr
  %29 = call i32 @stmm_find(ptr noundef %27, ptr noundef %28, ptr noundef nonnull %6) #20
  %.not = icmp eq i32 %29, 0
  br i1 %.not, label %.loopexit, label %30

30:                                               ; preds = %.thread
  %31 = load ptr, ptr %6, align 8, !tbaa !44
  %32 = load ptr, ptr %31, align 8, !tbaa !42
  %.not74 = icmp eq ptr %32, null
  br i1 %.not74, label %.loopexit, label %.lr.ph91

.lr.ph91:                                         ; preds = %30
  %33 = getelementptr inbounds nuw i8, ptr %0, i64 188
  %34 = getelementptr inbounds nuw i8, ptr %0, i64 192
  %35 = fpext float %2 to double
  %36 = fadd double %35, 1.000000e-03
  %37 = icmp sgt i32 %4, 0
  %38 = getelementptr inbounds nuw i8, ptr %0, i64 152
  %39 = getelementptr inbounds nuw i8, ptr %0, i64 176
  %wide.trip.count = zext nneg i32 %4 to i64
  br label %40

40:                                               ; preds = %100, %.lr.ph91
  %.06688 = phi ptr [ %32, %.lr.ph91 ], [ %.06589, %100 ]
  %.06787 = phi ptr [ null, %.lr.ph91 ], [ %.168, %100 ]
  %.06589.in = getelementptr inbounds nuw i8, ptr %.06688, i64 104
  %.06589 = load ptr, ptr %.06589.in, align 8, !tbaa !46
  %41 = load i32, ptr %33, align 4, !tbaa !89
  %42 = add nsw i32 %41, 1
  store i32 %42, ptr %33, align 4, !tbaa !89
  %43 = getelementptr inbounds nuw i8, ptr %.06688, i64 12
  %44 = load i32, ptr %43, align 4, !tbaa !33
  %45 = load i32, ptr %1, align 4, !tbaa !33
  %.not76 = icmp eq i32 %44, %45
  br i1 %.not76, label %46, label %50

46:                                               ; preds = %40
  %47 = getelementptr inbounds nuw i8, ptr %.06688, i64 16
  %48 = load i32, ptr %47, align 4, !tbaa !33
  %49 = load i32, ptr %22, align 4, !tbaa !33
  %.not77 = icmp eq i32 %48, %49
  br i1 %.not77, label %53, label %50

50:                                               ; preds = %46, %40
  %51 = load i32, ptr %34, align 8, !tbaa !90
  %52 = add nsw i32 %51, 1
  store i32 %52, ptr %34, align 8, !tbaa !90
  br label %100

53:                                               ; preds = %46
  %54 = getelementptr inbounds nuw i8, ptr %.06688, i64 72
  %55 = load float, ptr %54, align 8, !tbaa !61
  %56 = fpext float %55 to double
  %57 = fadd double %56, 1.000000e-03
  %58 = fcmp olt double %57, %35
  br i1 %58, label %62, label %59

59:                                               ; preds = %53
  %60 = fcmp olt double %36, %56
  br i1 %60, label %61, label %62

61:                                               ; preds = %59
  br label %62

62:                                               ; preds = %53, %59, %61
  %.059 = phi i32 [ 1, %61 ], [ 0, %59 ], [ 0, %53 ]
  %.058 = phi i32 [ 0, %61 ], [ 0, %59 ], [ 1, %53 ]
  br i1 %37, label %.lr.ph, label %._crit_edge

.lr.ph:                                           ; preds = %62
  %63 = getelementptr inbounds nuw i8, ptr %.06688, i64 76
  br label %64

64:                                               ; preds = %.lr.ph, %84
  %indvars.iv = phi i64 [ 0, %.lr.ph ], [ %indvars.iv.next, %84 ]
  %.181 = phi i32 [ %.058, %.lr.ph ], [ %.3, %84 ]
  %.16080 = phi i32 [ %.059, %.lr.ph ], [ %.362, %84 ]
  %65 = getelementptr inbounds nuw [6 x float], ptr %63, i64 0, i64 %indvars.iv
  %66 = load float, ptr %65, align 4, !tbaa !39
  %67 = fpext float %66 to double
  %68 = fcmp oeq float %66, -9.999000e+03
  br i1 %68, label %84, label %69

69:                                               ; preds = %64
  %70 = getelementptr inbounds nuw float, ptr %3, i64 %indvars.iv
  %71 = load float, ptr %70, align 4, !tbaa !39
  %72 = fpext float %71 to double
  %73 = fcmp oeq float %71, -9.999000e+03
  br i1 %73, label %84, label %74

74:                                               ; preds = %69
  %75 = fadd double %67, 1.000000e-03
  %76 = fcmp olt double %75, %72
  br i1 %76, label %81, label %77

77:                                               ; preds = %74
  %78 = fadd double %72, 1.000000e-03
  %79 = fcmp olt double %78, %67
  br i1 %79, label %80, label %81

80:                                               ; preds = %77
  br label %81

81:                                               ; preds = %74, %77, %80
  %.463 = phi i32 [ 1, %80 ], [ %.16080, %77 ], [ %.16080, %74 ]
  %.4 = phi i32 [ %.181, %80 ], [ %.181, %77 ], [ 1, %74 ]
  %82 = icmp ne i32 %.4, 0
  %83 = icmp ne i32 %.463, 0
  %or.cond = select i1 %82, i1 %83, i1 false
  br i1 %or.cond, label %._crit_edge, label %84

84:                                               ; preds = %81, %64, %69
  %.362 = phi i32 [ %.16080, %64 ], [ %.16080, %69 ], [ %.463, %81 ]
  %.3 = phi i32 [ %.181, %64 ], [ %.181, %69 ], [ %.4, %81 ]
  %indvars.iv.next = add nuw nsw i64 %indvars.iv, 1
  %exitcond.not = icmp eq i64 %indvars.iv.next, %wide.trip.count
  br i1 %exitcond.not, label %._crit_edge, label %64, !llvm.loop !119

._crit_edge:                                      ; preds = %84, %81, %62
  %.261 = phi i32 [ %.059, %62 ], [ 1, %81 ], [ %.362, %84 ]
  %.2 = phi i32 [ %.058, %62 ], [ 1, %81 ], [ %.3, %84 ]
  %85 = icmp ne i32 %.2, 0
  %86 = icmp ne i32 %.261, 0
  %or.cond3 = select i1 %85, i1 %86, i1 false
  br i1 %or.cond3, label %100, label %87

87:                                               ; preds = %._crit_edge
  br i1 %86, label %88, label %.loopexit

88:                                               ; preds = %87
  %89 = icmp eq ptr %.06787, null
  %90 = getelementptr inbounds nuw i8, ptr %.06688, i64 104
  %91 = load ptr, ptr %90, align 8, !tbaa !46
  br i1 %89, label %92, label %94

92:                                               ; preds = %88
  %93 = load ptr, ptr %6, align 8, !tbaa !44
  store ptr %91, ptr %93, align 8, !tbaa !42
  br label %96

94:                                               ; preds = %88
  %95 = getelementptr inbounds nuw i8, ptr %.06787, i64 104
  store ptr %91, ptr %95, align 8, !tbaa !46
  br label %96

96:                                               ; preds = %94, %92
  %97 = load ptr, ptr %38, align 8, !tbaa !13
  call void @Extra_MmFixedEntryRecycle(ptr noundef %97, ptr noundef nonnull %.06688) #20
  %98 = load i32, ptr %39, align 8, !tbaa !88
  %99 = add nsw i32 %98, 1
  store i32 %99, ptr %39, align 8, !tbaa !88
  br label %100

100:                                              ; preds = %._crit_edge, %96, %50
  %.168 = phi ptr [ %.06787, %50 ], [ %.06787, %96 ], [ %.06688, %._crit_edge ]
  %.not78 = icmp eq ptr %.06589, null
  br i1 %.not78, label %.loopexit, label %40, !llvm.loop !120

.loopexit:                                        ; preds = %100, %87, %30, %.thread, %13, %17, %11, %11
  %.0 = phi i32 [ 0, %11 ], [ 0, %11 ], [ 0, %17 ], [ 0, %13 ], [ 1, %.thread ], [ 1, %30 ], [ 1, %100 ], [ 0, %87 ]
  call void @llvm.lifetime.end.p0(i64 8, ptr nonnull %6) #20
  ret i32 %.0
}